; Function Attrs: nounwind uwtable
define internal fastcc void @certinfo(ptr noundef captures(none) %0) unnamed_addr #0 {
  %2 = alloca ptr, align 8
  %3 = getelementptr inbounds nuw i8, ptr %0, i64 24
  %4 = load ptr, ptr %3, align 8, !tbaa !53
  %.not = icmp eq ptr %4, null
  br i1 %.not, label %5, label %12

5:                                                ; preds = %1
  call void @llvm.lifetime.start.p0(i64 8, ptr nonnull %2) #7
  %6 = getelementptr inbounds nuw i8, ptr %0, i64 32
  %7 = load ptr, ptr %6, align 8, !tbaa !32
  %8 = call i32 (ptr, i32, ...) @curl_easy_getinfo(ptr noundef %7, i32 noundef 4194338, ptr noundef nonnull %2) #7
  %9 = icmp eq i32 %8, 0
  %10 = load ptr, ptr %2, align 8
  %11 = select i1 %9, ptr %10, ptr null
  store ptr %11, ptr %3, align 8, !tbaa !53
  call void @llvm.lifetime.end.p0(i64 8, ptr nonnull %2) #7
  br label %12

12:                                               ; preds = %5, %1
  ret void
}